# file opened: /Users/rob/Source/zxdev/bipboi-returns/src/main.asm
  1   0000
  2   0000                  device  ZXSPECTRUM48
  3   0000
  4   0000                  include "./constants.asm"
# file opened: /Users/rob/Source/zxdev/bipboi-returns/src/./constants.asm
  1+  0000              ;
  2+  0000              ; ROM routine addresses
  3+  0000              ;
  4+  0000              ROM_CLS                 EQU  0x0DAF             ; Clears the screen and opens channel 2
  5+  0000              ROM_OPEN_CHANNEL        EQU  0x1601             ; Open a channel
  6+  0000              ROM_PRINT               EQU  0x203C             ; Print a string
  7+  0000              ;
  8+  0000              ; PRINT control codes - work with ROM_PRINT and RST 0x10
  9+  0000              ;
 10+  0000              INK                     EQU 0x10
 11+  0000              PAPER                   EQU 0x11
 12+  0000              FLASH                   EQU 0x12
 13+  0000              BRIGHT                  EQU 0x13
 14+  0000              INVERSE                 EQU 0x14
 15+  0000              OVER                    EQU 0x15
 16+  0000              AT                      EQU 0x16
 17+  0000              TAB                     EQU 0x17
 18+  0000              CR                      EQU 0x0C
# file closed: /Users/rob/Source/zxdev/bipboi-returns/src/./constants.asm
  5   0000
  6   0000                  org $8000
  7   8000              init:
  8   8000
  9   8000                ;
 10   8000              ; Print the string TEXT2 using my zero-terminated string print routine
 11   8000              ;
 12   8000                ;
 13   8000              ; Change border to black
 14   8000              ;
 15   8000
 16   8000                  ; Clear Border
 17   8000 3E 00            LD A, 0x00              ; Load 0 into A (black color)
 18   8002 D3 FE            OUT (0xFE), A           ; Set border to black
 19   8004
 20   8004                  ; Clear Attribute Memory
 21   8004 21 00 58         LD HL, $5800            ; Start of attribute memory
 22   8007 11 01 58         LD DE, $5801            ; Next byte in attribute memory
 23   800A 01 FF 01         LD BC, 511           ; 6912 bytes to fill (32 columns * 24 rows)
 24   800D 36 07            LD (HL), 7            ; Bright white on black background
 25   800F ED B0            LDIR                    ; Fill the attribute memory
 26   8011
 27   8011                ; Clear Attribute Memory
 28   8011 21 00 5A         LD HL, $5800+512            ; Start of attribute memory
 29   8014 11 01 5A         LD DE, $5801+512            ; Next byte in attribute memory
 30   8017 01 FF 00         LD BC, 255           ; 6912 bytes to fill (32 columns * 24 rows)
 31   801A 36 6F            LD (HL), %01101111            ; Bright white on black background
 32   801C ED B0            LDIR
 33   801E
 34   801E                  ; Clear screen memory
 35   801E 21 00 40         LD HL, $4000            ; Start of screen memory
 36   8021 11 01 40         LD DE, $4001            ; Next byte in screen memory
 37   8024 01 FF 17         LD BC, 6143         ; 6912 bytes to fill (32 columns * 24 rows)
 38   8027 36 00            LD (HL), 0x00            ; Load 0 into A (black color)
 39   8029 ED B0            LDIR                    ; Fill the screen memory
 40   802B
 41   802B              main:
 42   802B
 43   802B FB               EI
 44   802C 76               HALT
 45   802D F3               DI
 46   802E
 47   802E                    ; Clear Border
 48   802E 3E 00            LD A, 0x00              ; Load 0 into A (black color)
 49   8030 D3 FE            OUT (0xFE), A           ; Set border to black
 50   8032
 51   8032
 52   8032                  ; Pause until 3rd part of screen
 53   8032 01 35 02         LD BC, 565
 54   8035              PauseLoop:
 55   8035 0B               DEC BC
 56   8036 78               LD A, B
 57   8037 B1               OR C
 58   8038 20 FB            JR NZ, PauseLoop
 59   803A
 60   803A CD 78 80         CALL ClearScreen
 61   803D
 62   803D                  ; Change border to green
 63   803D 3E 02            LD A, 0x02             ; Load 2 into A (green color)
 64   803F D3 FE            OUT (0xFE), A          ; Set border to green
 65   8041
 66   8041 11 AC 80         LD DE, BBLOGO
 67   8044 21 88 40         LD HL, 0x4088
 68   8047 06 0A            LD B, 10
 69   8049
 70   8049              LP1:
 71   8049 C5               PUSH BC
 72   804A
 73   804A 06 10            LD B,16
 74   804C              LP2:
 75   804C 1A               LD A,(DE)
 76   804D 77               LD (HL),A
 77   804E 2C               INC L
 78   804F 13               INC DE
 79   8050 10 FA            DJNZ LP2
 80   8052
 81   8052 2D               DEC L
 82   8053 24               INC H
 83   8054
 84   8054 06 10            LD B,16
 85   8056
 86   8056              LP3:
 87   8056 1A               LD A,(DE)
 88   8057 77               LD (HL),A
 89   8058 13               INC DE
 90   8059 2D               DEC L
 91   805A
 92   805A
 93   805A
 94   805A 10 FA            DJNZ LP3
 95   805C
 96   805C 2C               INC L
 97   805D
 98   805D CD 69 80         CALL DOWN_HL
 99   8060
100   8060
101   8060
102   8060
103   8060
104   8060
105   8060
106   8060
107   8060 C1               POP BC
108   8061
109   8061 10 E6            DJNZ LP1
110   8063
111   8063                  ; Change border to black
112   8063 3E 00            LD A, 0x00              ; Load 0 into A (black color)
113   8065 D3 FE            OUT (0xFE), A           ; Set border to black
114   8067
115   8067
116   8067 18 C2            jr main
117   8069              ;
118   8069 24           DOWN_HL:        inc h
118   806A 7C             ld a,h
118   806B E6 07          and 7
118   806D C0             ret nz
119   806E 7D                           ld a,l
119   806F C6 20          add a,32
119   8071 6F             ld l,a
120   8072 D8                           ret c
121   8073 7C                           ld a,h
121   8074 D6 08          sub 8
121   8076 67             ld h,a
121   8077 C9             ret
122   8078
123   8078              ClearScreen:
124   8078 ED 73 AA 80  	LD   (SP_Store),SP
125   807C 11 01 01     	LD   DE,$0101
126   807F 21 1E 40     	LD   HL,$401E			; start screen address of play area to clear
127   8082 0E 10        	LD   C,$10
128   8084              NextRow:
129   8084 06 08        	LD   B,$08
130   8086
131   8086              ClearCharacter:
132   8086 F9           	LD   SP,HL
133   8087 D5           	PUSH DE
134   8088 D5           	PUSH DE
135   8089 D5           	PUSH DE
136   808A D5           	PUSH DE
137   808B D5           	PUSH DE
138   808C D5           	PUSH DE
139   808D D5           	PUSH DE
140   808E D5           	PUSH DE
141   808F D5           	PUSH DE
142   8090 D5           	PUSH DE
143   8091 D5           	PUSH DE
144   8092 D5           	PUSH DE
145   8093 D5           	PUSH DE
146   8094 D5           	PUSH DE
147   8095 24           	INC  H
148   8096 10 EE        	DJNZ ClearCharacter
149   8098
150   8098 7D           	LD   A,L
151   8099 C6 20        	ADD  A,$20
152   809B 6F           	LD   L,A
153   809C 38 04        	JR   C,InSegment
154   809E
155   809E 7C           	LD   A,H
156   809F D6 08        	SUB  $08
157   80A1 67           	LD   H,A
158   80A2
159   80A2              InSegment:
160   80A2 0D           	DEC  C
161   80A3 20 DF        	JR   NZ,NextRow
162   80A5
163   80A5 ED 7B AA 80  	LD   SP,(SP_Store)
164   80A9 C9           	RET
165   80AA
166   80AA 00 00        SP_Store: defw 0
167   80AC
168   80AC              BBLOGO:
169   80AC
170   80AC                  include "./assets/bblogo.asm"
# file opened: /Users/rob/Source/zxdev/bipboi-returns/src/./assets/bblogo.asm
  1+  80AC              ; ASM source file created by SevenuP v1.20
  2+  80AC              ; SevenuP (C) Copyright 2002-2006 by Jaime Tejedor Gomez, aka Metalbrain
  3+  80AC
  4+  80AC              ;GRAPHIC DATA:
  5+  80AC              ;Pixel Size:      (128,  64)
  6+  80AC              ;Char Size:       ( 16,   8)
  7+  80AC              ;Sort Priorities: X char, Char line, Y char
  8+  80AC              ;Data Outputted:  Gfx
  9+  80AC              ;Interleave:      Line
 10+  80AC              ;Mask:            No
 11+  80AC              ;Zigzag:          Horizontal
 12+  80AC
 13+  80AC              BIPBOI_LOGO_128:
 14+  80AC 00 00 00 00  	DEFB	  0,  0,  0,  0,  0, 31,252,  0
 14+  80B0 00 1F FC 00
 15+  80B4 00 00 00 00  	DEFB	  0,  0,  0,  0,  0,  0,  0,  0
 15+  80B8 00 00 00 00
 16+  80BC 00 00 C0 FF  	DEFB	  0,  0,192,255,  1,  0,  0,  0
 16+  80C0 01 00 00 00
 17+  80C4 C0 FF FF 03  	DEFB	192,255,255,  3,  0,  0,  0,  0
 17+  80C8 00 00 00 00
 18+  80CC 0F FF FF 1F  	DEFB	 15,255,255, 31,255,255,255,255
 18+  80D0 FF FF FF FF
 19+  80D4 FF FF 00 3F  	DEFB	255,255,  0, 63,255,251,255,224
 19+  80D8 FF FB FF E0
 20+  80DC F8 FF FF FF  	DEFB	248,255,255,255,255,193,255,255
 20+  80E0 FF C1 FF FF
 21+  80E4 FF FF FF FF  	DEFB	255,255,255,255,255,255,255, 31
 21+  80E8 FF FF FF 1F
 22+  80EC 1F FF FF FF  	DEFB	 31,255,255,255,255,192,  1,255
 22+  80F0 FF C0 01 FF
 23+  80F4 FF FF F3 FF  	DEFB	255,255,243,255,255,255,255,248
 23+  80F8 FF FF FF F8
 24+  80FC F8 FF 3F 00  	DEFB	248,255, 63,  0,252,255,255,255
 24+  8100 FC FF FF FF
 25+  8104 3F 00 80 FF  	DEFB	 63,  0,128,255,255,255,255, 31
 25+  8108 FF FF FF 1F
 26+  810C 1E 00 00 FE  	DEFB	 30,  0,  0,254,  3,128,  0, 30
 26+  8110 03 80 00 1E
 27+  8114 00 00 FF C0  	DEFB	  0,  0,255,192,  0, 15,128,120
 27+  8118 00 0F 80 78
 28+  811C 78 80 07 00  	DEFB	120,128,  7,  0,128,127,  0,  0
 28+  8120 80 7F 00 00
 29+  8124 0E 00 80 01  	DEFB	 14,  0,128,  1,126,  0,  0, 30
 29+  8128 7E 00 00 1E
 30+  812C 1E 00 00 3E  	DEFB	 30,  0,  0, 62,  1,128,  0, 14
 30+  8130 01 80 00 0E
 31+  8134 00 00 3F 00  	DEFB	  0,  0, 63,  0,  0,  3,128,120
 31+  8138 00 03 80 78
 32+  813C 78 C0 03 00  	DEFB	120,192,  3,  0,  0, 62,  0,  0
 32+  8140 00 3E 00 00
 33+  8144 06 00 80 01  	DEFB	  6,  0,128,  1, 30,  0,  0, 30
 33+  8148 1E 00 00 1E
 34+  814C 1E 00 E0 1E  	DEFB	 30,  0,224, 30,  1,128,  0,  6
 34+  8150 01 80 00 06
 35+  8154 00 C0 1E 00  	DEFB	  0,192, 30,  0,  0,  1,192,120
 35+  8158 00 01 C0 78
 36+  815C 78 C0 01 00  	DEFB	120,192,  1,  0,  0, 30,240,  1
 36+  8160 00 1E F0 01
 37+  8164 06 00 80 01  	DEFB	  6,  0,128,  1, 30,240,  0, 30
 37+  8168 1E F0 00 1E
 38+  816C 1E 00 F0 1E  	DEFB	 30,  0,240, 30,  1,128, 60,  6
 38+  8170 01 80 3C 06
 39+  8174 01 F0 1E 00  	DEFB	  1,240, 30,  0,126,  1,192,120
 39+  8178 7E 01 C0 78
 40+  817C 78 C0 01 7E  	DEFB	120,192,  1,126,  0, 30,240,  1
 40+  8180 00 1E F0 01
 41+  8184 06 3C 80 01  	DEFB	  6, 60,128,  1, 30,240,  0, 30
 41+  8188 1E F0 00 1E
 42+  818C 1E 00 F0 1E  	DEFB	 30,  0,240, 30,  1,128, 60,  6
 42+  8190 01 80 3C 06
 43+  8194 01 F0 1E 00  	DEFB	  1,240, 30,  0,126,  1,192,120
 43+  8198 7E 01 C0 78
 44+  819C 78 C0 01 FE  	DEFB	120,192,  1,254,  0, 30,240,  1
 44+  81A0 00 1E F0 01
 45+  81A4 06 3C 80 01  	DEFB	  6, 60,128,  1, 30,240,  0, 30
 45+  81A8 1E F0 00 1E
 46+  81AC 1E 00 C0 3E  	DEFB	 30,  0,192, 62,  1,128, 60,  6
 46+  81B0 01 80 3C 06
 47+  81B4 00 60 3E 00  	DEFB	  0, 96, 62,  0,254,  1,192,120
 47+  81B8 FE 01 C0 78
 48+  81BC 78 C0 01 FE  	DEFB	120,192,  1,254,  0, 60,  0,  0
 48+  81C0 00 3C 00 00
 49+  81C4 06 3C 80 01  	DEFB	  6, 60,128,  1, 62,  0,  0, 30
 49+  81C8 3E 00 00 1E
 50+  81CC 1E 00 00 7E  	DEFB	 30,  0,  0,126,  1,192, 56, 14
 50+  81D0 01 C0 38 0E
 51+  81D4 00 00 7C 00  	DEFB	  0,  0,124,  0,254,  1,192,120
 51+  81D8 FE 01 C0 78
 52+  81DC 78 C0 01 FE  	DEFB	120,192,  1,254,  0, 60,  0,  0
 52+  81E0 00 3C 00 00
 53+  81E4 0E 00 C0 01  	DEFB	 14,  0,192,  1, 62,  0,  0, 30
 53+  81E8 3E 00 00 1E
 54+  81EC 1E 00 00 1E  	DEFB	 30,  0,  0, 30,  1,192,  0, 30
 54+  81F0 01 C0 00 1E
 55+  81F4 00 80 1C 00  	DEFB	  0,128, 28,  0,254,  1,192,120
 55+  81F8 FE 01 C0 78
 56+  81FC 78 C0 01 FE  	DEFB	120,192,  1,254,  0, 14,224,  1
 56+  8200 00 0E E0 01
 57+  8204 3E 00 C0 01  	DEFB	 62,  0,192,  1, 14,224,  1, 30
 57+  8208 0E E0 01 1E
 58+  820C 1E 01 F0 0E  	DEFB	 30,  1,240, 14,  1,192,  0,126
 58+  8210 01 C0 00 7E
 59+  8214 01 E0 0E 00  	DEFB	  1,224, 14,  0,126,  1,192,120
 59+  8218 7E 01 C0 78
 60+  821C 78 C0 01 7E  	DEFB	120,192,  1,126,  0, 14,240,  1
 60+  8220 00 0E F0 01
 61+  8224 FE 03 C0 01  	DEFB	254,  3,192,  1, 14,240,  1, 30
 61+  8228 0E F0 01 1E
 62+  822C 1E 01 F0 0E  	DEFB	 30,  1,240, 14,  1,192, 63,254
 62+  8230 01 C0 3F FE
 63+  8234 01 F0 0E 00  	DEFB	  1,240, 14,  0,124,  1,192,120
 63+  8238 7C 01 C0 78
 64+  823C 78 C0 01 00  	DEFB	120,192,  1,  0,  0, 14,240,  1
 64+  8240 00 0E F0 01
 65+  8244 FE 3F C0 01  	DEFB	254, 63,192,  1, 14,240,  1, 30
 65+  8248 0E F0 01 1E
 66+  824C 1E 01 F0 0E  	DEFB	 30,  1,240, 14,  1,192, 63,222
 66+  8250 01 C0 3F DE
 67+  8254 01 F0 0F 00  	DEFB	  1,240, 15,  0,  0,  1,192,120
 67+  8258 00 01 C0 78
 68+  825C 78 C0 03 00  	DEFB	120,192,  3,  0,  0, 15,224,  1
 68+  8260 00 0F E0 01
 69+  8264 1E 3C C0 01  	DEFB	 30, 60,192,  1, 14,240,  1, 30
 69+  8268 0E F0 01 1E
 70+  826C 1E 00 00 0E  	DEFB	 30,  0,  0, 14,  1,192, 60, 30
 70+  8270 01 C0 3C 1E
 71+  8274 00 00 0F 80  	DEFB	  0,  0, 15,128,  0,  7,192,120
 71+  8278 00 07 C0 78
 72+  827C 78 C0 0F 00  	DEFB	120,192, 15,  0,192, 31,  0,  0
 72+  8280 C0 1F 00 00
 73+  8284 1E 3C C0 01  	DEFB	 30, 60,192,  1, 14,  0,  0, 30
 73+  8288 0E 00 00 1E
 74+  828C 1E 00 00 1E  	DEFB	 30,  0,  0, 30,  1,192, 60, 30
 74+  8290 01 C0 3C 1E
 75+  8294 00 00 1F F0  	DEFB	  0,  0, 31,240,  0, 63,192,120
 75+  8298 00 3F C0 78
 76+  829C F8 FF FF FF  	DEFB	248,255,255,255,255, 63,  0,  0
 76+  82A0 FF 3F 00 00
 77+  82A4 1E 3C C0 FF  	DEFB	 30, 60,192,255, 63,  0,  0, 30
 77+  82A8 3F 00 00 1E
 78+  82AC 1F 80 00 FF  	DEFB	 31,128,  0,255,255,192, 60, 31
 78+  82B0 FF C0 3C 1F
 79+  82B4 00 00 FC FF  	DEFB	  0,  0,252,255,255,255,255,248
 79+  82B8 FF FF FF F8
 80+  82BC F8 FF FB FF  	DEFB	248,255,251,255,127,252,255,255
 80+  82C0 7F FC FF FF
 81+  82C4 1F 1E C0 FF  	DEFB	 31, 30,192,255,255,255,255, 31
 81+  82C8 FF FF FF 1F
 82+  82CC 1F FF FF FF  	DEFB	 31,255,255,255,255,199,254, 31
 82+  82D0 FF C7 FE 1F
 83+  82D4 FF FF F8 0F  	DEFB	255,255,248, 15,255,224,255,248
 83+  82D8 FF E0 FF F8
 84+  82DC 00 00 00 00  	DEFB	  0,  0,  0,  0,  0,224,255,255
 84+  82E0 00 E0 FF FF
 85+  82E4 1F FE FF 03  	DEFB	 31,254,255,  3,224,255,255, 31
 85+  82E8 E0 FF FF 1F
 86+  82EC 00 7F FF 00  	DEFB	  0,127,255,  0,  3,255,254,  0
 86+  82F0 03 FF FE 00
 87+  82F4 7F FF 00 00  	DEFB	127,255,  0,  0,  0,  0,  0,  0
 87+  82F8 00 00 00 00
 88+  82FC 00 00 00 00  	DEFB	  0,  0,  0,  0,  0,  0,  0,  0
 88+  8300 00 00 00 00
 89+  8304 00 FE FF 03  	DEFB	  0,254,255,  3,  0,  0,  0,  0
 89+  8308 00 00 00 00
 90+  830C 00 00 00 00  	DEFB	  0,  0,  0,  0,  0,  0,  0,  0
 90+  8310 00 00 00 00
 91+  8314 00 00 00 00  	DEFB	  0,  0,  0,  0,  0,  0,  0,  0
 91+  8318 00 00 00 00
 92+  831C 00 00 00 00  	DEFB	  0,  0,  0,  0,  0,  0,  0,  0
 92+  8320 00 00 00 00
 93+  8324 00 00 00 00  	DEFB	  0,  0,  0,  0,  0,  0,  0,  0
 93+  8328 00 00 00 00
 94+  832C 00 00 00 00  	DEFB	  0,  0,  0,  0,  0,  0,  0,  0
 94+  8330 00 00 00 00
 95+  8334 00 00 00 00  	DEFB	  0,  0,  0,  0,  0,  0,  0,  0
 95+  8338 00 00 00 00
 96+  833C 00 00 00 00  	DEFB	  0,  0,  0,  0,  0,  0,  0,  0
 96+  8340 00 00 00 00
 97+  8344 00 00 00 00  	DEFB	  0,  0,  0,  0,  0,  0,  0,  0
 97+  8348 00 00 00 00
 98+  834C 00 00 00 00  	DEFB	  0,  0,  0,  0,  0,  0,  0,  0
 98+  8350 00 00 00 00
 99+  8354 00 00 00 00  	DEFB	  0,  0,  0,  0,  0,  0,  0,  0
 99+  8358 00 00 00 00
100+  835C 00 00 00 00  	DEFB	  0,  0,  0,  0,  0,  0,  0,  0
100+  8360 00 00 00 00
101+  8364 00 00 00 FF  	DEFB	  0,  0,  0,255,  1,  0,  0,  0
101+  8368 01 00 00 00
102+  836C 00 00 3F 01  	DEFB	  0,  0, 63,  1,255,191,254, 96
102+  8370 FF BF FE 60
103+  8374 11 F8 1C 01  	DEFB	 17,248, 28,  1,128,112,  0,  0
103+  8378 80 70 00 00
104+  837C 00 00 FC 81  	DEFB	  0,  0,252,129,  1, 30,254, 57
104+  8380 01 1E FE 39
105+  8384 E0 FE BF FF  	DEFB	224,254,191,255,193, 63,  0,  0
105+  8388 C1 3F 00 00
106+  838C 00 00 3B E1  	DEFB	  0,  0, 59,225,128, 31,254,224
106+  8390 80 1F FE E0
107+  8394 39 9F 1F 01  	DEFB	 57,159, 31,  1,135,252,  0,  0
107+  8398 87 FC 00 00
108+  839C 00 00 00 87  	DEFB	  0,  0,  0,135,  1,159,135, 57
108+  83A0 01 9F 87 39
109+  83A4 E0 C0 01 80  	DEFB	224,192,  1,128,241, 56,  0,  0
109+  83A8 F1 38 00 00
110+  83AC 00 00 38 71  	DEFB	  0,  0, 56,113,128,  1,192,224
110+  83B0 80 01 C0 E0
111+  83B4 39 83 9F 81  	DEFB	 57,131,159,129,142,  0,  0,  0
111+  83B8 8E 00 00 00
112+  83BC 00 00 00 8E  	DEFB	  0,  0,  0,142,193,157,129, 57
112+  83C0 C1 9D 81 39
113+  83C4 E0 C0 01 87  	DEFB	224,192,  1,135, 49, 56,  0,  0
113+  83C8 31 38 00 00
114+  83CC 00 00 38 71  	DEFB	  0,  0, 56,113,255,129,192,224
114+  83D0 FF 81 C0 E0
115+  83D4 39 83 9C E1  	DEFB	 57,131,156,225,143,248,  0,  0
115+  83D8 8F F8 00 00
116+  83DC 00 00 FE 83  	DEFB	  0,  0,254,131,241,156,255, 49
116+  83E0 F1 9C FF 31
117+  83E4 E0 C0 01 FF  	DEFB	224,192,  1,255,241, 63,  0,  0
117+  83E8 F1 3F 00 00
118+  83EC 00 00 3F E3  	DEFB	  0,  0, 63,227,128,  1,192,224
118+  83F0 80 01 C0 E0
119+  83F4 31 FF 1C 79  	DEFB	 49,255, 28,121,128, 14,  0,  0
119+  83F8 80 0E 00 00
120+  83FC 00 00 06 80  	DEFB	  0,  0,  6,128, 57, 28,252,113
120+  8400 39 1C FC 71
121+  8404 E0 C0 01 80  	DEFB	224,192,  1,128,131, 63,  0,  0
121+  8408 83 3F 00 00
122+  840C 00 00 3F E3  	DEFB	  0,  0, 63,227,128,  1,192,224
122+  8410 80 01 C0 E0
123+  8414 71 BF 1C 1F  	DEFB	113,191, 28, 31,152,  6,  0,  0
123+  8418 98 06 00 00
124+  841C 00 00 1E 9C  	DEFB	  0,  0, 30,156, 15,156,143,225
124+  8420 0F 9C 8F E1
125+  8424 70 C0 01 80  	DEFB	112,192,  1,128,243, 57,  0,  0
125+  8428 F3 39 00 00
126+  842C 00 00 38 79  	DEFB	  0,  0, 56,121,128,  1,192,127
126+  8430 80 01 C0 7F
127+  8434 E1 83 DC 07  	DEFB	225,131,220,  7,159,254,  0,  0
127+  8438 9F FE 00 00
128+  843C 00 00 F8 8F  	DEFB	  0,  0,248,143,  3,220,129,193
128+  8440 03 DC 81 C1
129+  8444 3F C0 81 FF  	DEFB	 63,192,129,255, 57, 56,  0,  0
129+  8448 39 38 00 00
130+  844C 00 00 00 00  	DEFB	  0,  0,  0,  0,255,  0,  0, 31
130+  8450 FF 00 00 1F
131+  8454 01 80 1C 01  	DEFB	  1,128, 28,  1,135,224,  0,  0
131+  8458 87 E0 00 00
132+  845C 00 00 00 00  	DEFB	  0,  0,  0,  0,  0,  0,  0,  0
132+  8460 00 00 00 00
133+  8464 00 00 00 00  	DEFB	  0,  0,  0,  0,  0,  0,  0,  0
133+  8468 00 00 00 00
134+  846C 00 00 00 00  	DEFB	  0,  0,  0,  0,  0,  0,  0,  0
134+  8470 00 00 00 00
135+  8474 00 00 00 00  	DEFB	  0,  0,  0,  0,  0,  0,  0,  0
135+  8478 00 00 00 00
136+  847C 00 00 00 00  	DEFB	  0,  0,  0,  0,  0,  0,  0,  0
136+  8480 00 00 00 00
137+  8484 00 00 00 00  	DEFB	  0,  0,  0,  0,  0,  0,  0,  0
137+  8488 00 00 00 00
138+  848C 00 00 00 00  	DEFB	  0,  0,  0,  0,  0,  0,  0,  0
138+  8490 00 00 00 00
139+  8494 00 00 00 00  	DEFB	  0,  0,  0,  0,  0,  0,  0,  0
139+  8498 00 00 00 00
140+  849C 00 00 00 00  	DEFB	  0,  0,  0,  0,  0,  0,  0,  0
140+  84A0 00 00 00 00
141+  84A4 00 00 00 00  	DEFB	  0,  0,  0,  0,  0,  0,  0,  0
141+  84A8 00 00 00 00
# file closed: /Users/rob/Source/zxdev/bipboi-returns/src/./assets/bblogo.asm
171   84AC
172   84AC
173   84AC
174   84AC                  savesna "./src/main.sna",init
main.asm(175): warning: [SAVETAP] Tape file will not contain data from 0x5B00 to 0x5E00
175   84AC                  savetap "./src/main.tap",init
# file closed: /Users/rob/Source/zxdev/bipboi-returns/src/main.asm

Value    Label
------ - -----------------------------------------------------------
0x80AC X BIPBOI_LOGO_128
0x80A2   InSegment
0x8086   ClearCharacter
0x8084   NextRow
0x80AA   SP_Store
0x8069   DOWN_HL
0x8056   LP3
0x804C   LP2
0x8049   LP1
0x80AC   BBLOGO
0x8078   ClearScreen
0x8035   PauseLoop
0x802B   main
0x8000 X init
0x000C X CR
0x0017 X TAB
0x0016 X AT
0x0015 X OVER
0x0014 X INVERSE
0x0013 X BRIGHT
0x0012 X FLASH
0x0011 X PAPER
0x0010 X INK
0x203C X ROM_PRINT
0x1601 X ROM_OPEN_CHANNEL
0x0DAF X ROM_CLS
